Certificate:
    Data:
        Version: 3 (0x2)
        Serial Number: 1 (0x1)
    Signature Algorithm: sha256WithRSAEncryption
        Issuer: C=US, O=Noddos, OU=Noddos Certificate Authority, CN=Noddos Software CA
        Validity
            Not Before: Apr 12 18:18:25 2017 GMT
            Not After : Apr 12 18:18:25 2022 GMT
        Subject: C=US, O=Noddos, OU=Noddos Certificate Authority, CN=Noddos Configuration Authority
        Subject Public Key Info:
            Public Key Algorithm: rsaEncryption
                Public-Key: (4096 bit)
                Modulus:
                    00:d0:66:4b:86:02:01:88:ca:f0:f9:97:13:2e:28:
                    03:e4:08:d5:a5:00:da:80:9e:dc:c8:db:c9:f0:31:
                    c3:d0:0c:ed:cf:1f:95:3a:8c:c3:04:db:42:7d:94:
                    d6:10:61:1a:bf:e7:55:aa:e5:81:ee:88:8b:3b:6b:
                    27:b1:6e:c1:03:46:5c:77:7b:a3:b5:9e:07:b1:c4:
                    bb:bd:47:37:f3:f3:07:1a:f7:84:19:ea:c3:2e:7f:
                    6c:ce:df:8b:6e:16:14:92:86:ef:89:dc:0c:16:8e:
                    61:0c:35:e2:a4:b5:46:37:d8:51:3b:5f:50:93:04:
                    b1:7b:1c:0d:5c:26:28:9c:71:b7:b0:0b:e7:b9:e2:
                    bd:51:39:9c:2e:e3:c1:6c:ac:98:42:56:d7:a4:bb:
                    cc:4e:fd:f3:87:5f:79:24:06:71:b7:d6:23:24:e2:
                    62:0f:2d:1b:ab:f8:54:1c:e7:b9:60:92:e3:e4:e9:
                    2f:14:0a:4e:c6:c1:db:8d:44:6a:dd:31:52:3e:af:
                    e0:05:1b:4c:12:14:98:99:fd:f8:e1:7f:df:bd:c0:
                    47:3d:58:a5:22:8b:34:25:80:8a:08:56:8c:47:02:
                    a8:7f:d5:d4:03:37:7d:9f:84:34:c6:8a:18:f3:3e:
                    8f:94:5c:b8:f7:9b:95:90:70:66:30:69:1a:94:e4:
                    e5:eb:88:4e:cd:9e:53:3b:49:07:a3:54:f3:81:39:
                    71:7a:5a:ee:c3:a6:1b:f7:fe:52:33:dc:c1:95:ba:
                    26:5a:c6:7a:23:54:6c:4e:f6:95:b2:6b:b5:da:3b:
                    c8:6f:f9:99:2a:fb:18:ee:ca:f4:64:81:5e:07:69:
                    8b:53:13:05:86:9a:47:f9:25:64:fc:da:9c:8a:2e:
                    fb:8a:2a:3c:ae:4a:ae:e6:51:58:d1:af:c2:3b:1e:
                    c9:2d:cb:cb:9b:38:d0:32:05:e2:05:5d:77:00:84:
                    0e:30:70:4c:1c:5d:9d:06:97:a1:c0:7e:84:b4:28:
                    b4:ab:cd:e6:fc:b0:93:ad:65:9d:c2:25:b2:cb:f4:
                    4b:ae:99:b9:23:b5:e5:fa:67:f2:a7:4d:50:d2:cb:
                    d4:2c:9e:9b:ff:18:1e:6d:00:57:63:12:71:3d:9a:
                    73:2d:f5:75:c5:a3:7f:8b:29:01:4d:b7:42:e8:5f:
                    a4:00:6b:56:df:d4:a6:2f:fa:56:74:fb:2f:3f:ee:
                    24:d8:13:1f:9e:eb:8d:e0:b2:c5:b6:e3:95:f9:e7:
                    4c:f0:ef:95:e5:56:85:0f:17:ab:de:41:53:28:46:
                    69:a8:79:cc:bf:da:af:25:42:20:c3:e6:bc:20:95:
                    00:ef:f3:ba:0b:c3:f4:1a:7a:64:04:59:73:78:c7:
                    89:12:8d
                Exponent: 65537 (0x10001)
        X509v3 extensions:
            X509v3 Key Usage: critical
                Digital Signature
            X509v3 Basic Constraints: 
                CA:FALSE
            X509v3 Extended Key Usage: critical
                Code Signing
            X509v3 Subject Key Identifier: 
                EC:22:81:3C:10:D8:E4:E3:3A:79:06:6A:0F:A0:A5:1E:D1:A2:6D:F9
            X509v3 Authority Key Identifier: 
                keyid:14:55:89:6D:2B:24:AC:E2:B7:F7:D4:CD:49:C8:B0:EB:13:E6:05:33

            Authority Information Access: 
                CA Issuers - URI:http://ca.noddos.io/ca/software-ca.cer

            X509v3 CRL Distribution Points: 

                Full Name:
                  URI:http://ca.noddos.io/ca/software-ca.crl

    Signature Algorithm: sha256WithRSAEncryption
         06:b4:52:6a:a5:3b:fd:b7:3f:03:9c:5e:75:d3:91:23:b0:29:
         b8:4f:c2:d1:3c:69:3b:0b:d5:a9:56:13:d2:67:91:e5:12:c3:
         89:a1:88:ad:e8:8d:ff:fb:d3:6c:38:de:af:9c:0a:f7:b6:51:
         e0:0a:14:81:8d:f5:51:e4:c6:33:6e:8c:e3:86:6b:40:3d:2d:
         92:c2:11:22:39:5d:21:d5:1b:15:ff:2d:ae:ba:42:0f:2a:2f:
         40:3c:a9:b9:3f:c5:18:26:47:19:fe:cb:b6:b7:89:17:5f:d5:
         a2:28:f1:73:42:d6:85:af:7a:e1:ed:05:0a:9d:e5:df:7a:96:
         dc:8c:6b:86:e8:22:38:19:3b:76:a6:42:72:da:bf:c3:58:4f:
         c2:3a:80:cb:04:13:44:f4:65:b1:a1:3e:fe:a3:0e:b7:37:83:
         de:66:96:2c:82:a8:59:c4:c4:6b:f2:ec:49:e2:e2:e0:04:e2:
         e4:3b:60:36:27:8b:a3:d0:fc:ff:38:d9:de:bf:dd:cd:88:ec:
         70:2d:9b:bf:d9:b8:07:8f:b0:fe:d7:f5:5e:7a:7c:7c:d5:89:
         5f:68:03:ad:ab:a8:33:ad:53:a0:a3:4a:0d:41:9b:e8:e2:d8:
         0b:8a:74:f6:a0:39:08:c3:7d:83:1a:6c:59:38:0e:ba:95:3b:
         c3:78:d4:5b:eb:52:2a:db:63:06:ea:98:00:8d:53:13:98:e0:
         70:a7:d2:17:a6:41:fb:ce:fa:77:ca:a0:c8:6d:5a:4b:41:f8:
         ff:5b:82:0c:c1:73:c8:56:27:ce:36:df:3f:bc:8b:a4:1b:86:
         48:56:87:f0:a4:cb:cb:80:25:6d:bb:2b:5c:31:2e:d6:45:87:
         d2:68:40:6d:5f:2b:4d:ba:4b:20:c3:b9:aa:39:a5:36:65:f9:
         0d:11:fa:57:c5:bc:ba:2f:fe:97:c1:4b:5c:c9:92:60:11:dc:
         b4:4c:af:62:5e:c5:e9:c8:01:25:5b:b4:a6:31:03:87:12:1f:
         07:88:ef:b4:a9:bd:98:f3:12:95:fc:14:38:9c:96:82:d1:4d:
         d7:3e:d4:6a:41:be:3c:08:d4:e0:0e:3b:61:21:f8:07:a2:fc:
         b5:91:6c:a3:1a:f3:55:8e:fb:65:ba:e1:09:cf:cc:49:97:36:
         5c:cf:5b:98:0b:dd:16:d6:23:0c:cd:a0:dd:41:69:c1:40:7d:
         e0:d3:38:bf:f9:c2:93:93:f1:02:3c:d3:8e:5f:1a:8b:48:50:
         49:d3:d6:7b:5d:dd:6e:68:f1:ea:02:55:3f:58:75:d6:4a:15:
         3a:d0:a7:c3:32:26:9b:3a:c7:f1:68:97:cc:03:8a:de:fd:cf:
         5f:2f:f4:2c:f9:cc:cf:56
-----BEGIN CERTIFICATE-----
MIIGPzCCBCegAwIBAgIBATANBgkqhkiG9w0BAQsFADBiMQswCQYDVQQGEwJVUzEP
MA0GA1UECgwGTm9kZG9zMSUwIwYDVQQLDBxOb2Rkb3MgQ2VydGlmaWNhdGUgQXV0
aG9yaXR5MRswGQYDVQQDDBJOb2Rkb3MgU29mdHdhcmUgQ0EwHhcNMTcwNDEyMTgx
ODI1WhcNMjIwNDEyMTgxODI1WjBuMQswCQYDVQQGEwJVUzEPMA0GA1UECgwGTm9k
ZG9zMSUwIwYDVQQLDBxOb2Rkb3MgQ2VydGlmaWNhdGUgQXV0aG9yaXR5MScwJQYD
VQQDDB5Ob2Rkb3MgQ29uZmlndXJhdGlvbiBBdXRob3JpdHkwggIiMA0GCSqGSIb3
DQEBAQUAA4ICDwAwggIKAoICAQDQZkuGAgGIyvD5lxMuKAPkCNWlANqAntzI28nw
McPQDO3PH5U6jMME20J9lNYQYRq/51Wq5YHuiIs7ayexbsEDRlx3e6O1ngexxLu9
Rzfz8wca94QZ6sMuf2zO34tuFhSShu+J3AwWjmEMNeKktUY32FE7X1CTBLF7HA1c
JiiccbewC+e54r1ROZwu48FsrJhCVteku8xO/fOHX3kkBnG31iMk4mIPLRur+FQc
57lgkuPk6S8UCk7GwduNRGrdMVI+r+AFG0wSFJiZ/fjhf9+9wEc9WKUiizQlgIoI
VoxHAqh/1dQDN32fhDTGihjzPo+UXLj3m5WQcGYwaRqU5OXriE7NnlM7SQejVPOB
OXF6Wu7Dphv3/lIz3MGVuiZaxnojVGxO9pWya7XaO8hv+Zkq+xjuyvRkgV4HaYtT
EwWGmkf5JWT82pyKLvuKKjyuSq7mUVjRr8I7Hskty8ubONAyBeIFXXcAhA4wcEwc
XZ0Gl6HAfoS0KLSrzeb8sJOtZZ3CJbLL9EuumbkjteX6Z/KnTVDSy9Qsnpv/GB5t
AFdjEnE9mnMt9XXFo3+LKQFNt0LoX6QAa1bf1KYv+lZ0+y8/7iTYEx+e643gssW2
45X550zw75XlVoUPF6veQVMoRmmoecy/2q8lQiDD5rwglQDv87oLw/QaemQEWXN4
x4kSjQIDAQABo4HzMIHwMA4GA1UdDwEB/wQEAwIHgDAJBgNVHRMEAjAAMBYGA1Ud
JQEB/wQMMAoGCCsGAQUFBwMDMB0GA1UdDgQWBBTsIoE8ENjk4zp5BmoPoKUe0aJt
+TAfBgNVHSMEGDAWgBQUVYltKySs4rf31M1JyLDrE+YFMzBCBggrBgEFBQcBAQQ2
MDQwMgYIKwYBBQUHMAKGJmh0dHA6Ly9jYS5ub2Rkb3MuaW8vY2Evc29mdHdhcmUt
Y2EuY2VyMDcGA1UdHwQwMC4wLKAqoCiGJmh0dHA6Ly9jYS5ub2Rkb3MuaW8vY2Ev
c29mdHdhcmUtY2EuY3JsMA0GCSqGSIb3DQEBCwUAA4ICAQAGtFJqpTv9tz8DnF51
05EjsCm4T8LRPGk7C9WpVhPSZ5HlEsOJoYit6I3/+9NsON6vnAr3tlHgChSBjfVR
5MYzbozjhmtAPS2SwhEiOV0h1RsV/y2uukIPKi9APKm5P8UYJkcZ/su2t4kXX9Wi
KPFzQtaFr3rh7QUKneXfepbcjGuG6CI4GTt2pkJy2r/DWE/COoDLBBNE9GWxoT7+
ow63N4PeZpYsgqhZxMRr8uxJ4uLgBOLkO2A2J4uj0Pz/ONnev93NiOxwLZu/2bgH
j7D+1/Veenx81YlfaAOtq6gzrVOgo0oNQZvo4tgLinT2oDkIw32DGmxZOA66lTvD
eNRb61Iq22MG6pgAjVMTmOBwp9IXpkH7zvp3yqDIbVpLQfj/W4IMwXPIVifONt8/
vIukG4ZIVofwpMvLgCVtuytcMS7WRYfSaEBtXytNuksgw7mqOaU2ZfkNEfpXxby6
L/6XwUtcyZJgEdy0TK9iXsXpyAElW7SmMQOHEh8HiO+0qb2Y8xKV/BQ4nJaC0U3X
PtRqQb48CNTgDjthIfgHovy1kWyjGvNVjvtluuEJz8xJlzZcz1uYC90W1iMMzaDd
QWnBQH3g0zi/+cKTk/ECPNOOXxqLSFBJ09Z7Xd1uaPHqAlU/WHXWShU60KfDMiab
OsfxaJfMA4re/c9fL/Qs+czPVg==
-----END CERTIFICATE-----
