Certificate:
    Data:
        Version: 3 (0x2)
        Serial Number: 1 (0x1)
    Signature Algorithm: sha256WithRSAEncryption
        Issuer: C=US, O=Noddos, OU=Noddos Certificate Authority, CN=Noddos Software CA
        Validity
            Not Before: Jan 27 12:47:42 2017 GMT
            Not After : Jan 27 12:47:42 2022 GMT
        Subject: C=US, O=Noddos, OU=Noddos Certificate Authority, CN=Noddos Config Certificate
        Subject Public Key Info:
            Public Key Algorithm: rsaEncryption
                Public-Key: (2048 bit)
                Modulus:
                    00:e8:d7:81:34:9a:43:63:f6:01:12:d8:2b:75:4f:
                    e1:b6:3a:4a:f9:20:6c:83:1d:b8:c8:9c:0f:fd:b4:
                    3e:47:51:32:19:bf:eb:f3:fd:26:7a:3a:fc:03:a1:
                    7e:14:79:3c:d9:10:33:76:da:2b:1a:7d:2b:0c:9d:
                    8f:67:71:1c:1e:81:2b:5c:0a:e0:99:80:c7:4d:60:
                    2b:28:04:82:6c:c0:4b:2e:b8:54:b0:1a:fb:ca:75:
                    85:e4:76:65:b4:0b:36:75:48:5d:4d:f2:de:43:a2:
                    24:4d:f1:64:2e:c4:20:ea:32:9f:5d:72:f5:e2:fd:
                    32:f8:25:1b:4f:ac:ed:10:22:65:7d:2e:97:a5:94:
                    7a:af:be:5e:eb:f0:0d:d5:77:3b:47:8c:a3:80:91:
                    ef:cb:8d:6f:cd:d3:70:1a:6b:6b:e7:08:19:c2:d7:
                    66:6a:9b:27:fe:78:19:ef:51:34:4b:37:54:29:d3:
                    70:ee:06:96:a6:aa:6d:f3:4b:14:29:0e:6e:35:26:
                    ba:f7:90:c9:73:9e:a1:2b:5a:82:18:6c:a1:d9:54:
                    ce:35:eb:d4:97:7e:2c:5c:89:ce:f6:14:72:c8:ec:
                    06:37:93:7f:ec:b6:37:5b:38:9f:61:6b:94:c6:15:
                    03:46:6e:68:c2:3f:c9:e9:2e:6d:5d:97:f2:97:5f:
                    55:17
                Exponent: 65537 (0x10001)
        X509v3 extensions:
            X509v3 Key Usage: critical
                Digital Signature
            X509v3 Basic Constraints: 
                CA:FALSE
            X509v3 Extended Key Usage: critical
                Code Signing
            X509v3 Subject Key Identifier: 
                6D:F6:CA:51:FA:EB:13:0A:35:E5:FD:FD:6F:F9:95:48:FB:FF:DA:0A
            X509v3 Authority Key Identifier: 
                keyid:EE:DF:D4:00:3D:35:DE:D3:44:39:CF:3D:89:24:6F:06:6D:0D:EB:0A

            Authority Information Access: 
                CA Issuers - URI:http://ca.noddos.ca/ca/software-ca.cer

            X509v3 CRL Distribution Points: 

                Full Name:
                  URI:http://ca.noddos.ca/ca/software-ca.crl

    Signature Algorithm: sha256WithRSAEncryption
         2f:dd:54:ce:d3:b1:61:36:b1:7c:69:35:2b:31:7d:4e:9a:9f:
         8f:e1:ff:ef:28:2d:c5:0e:b3:21:a9:4c:21:a7:58:8a:5e:65:
         1e:1e:9a:c6:e3:f8:10:2d:7f:d4:d4:f5:cd:1b:a5:4e:fd:6f:
         5f:7e:e0:a5:cf:4e:2c:0f:b8:21:de:0c:c6:ed:34:f0:5d:09:
         d6:8f:6f:e6:3c:46:5d:e6:ba:aa:0a:31:0b:51:0c:62:01:aa:
         9d:d1:6e:60:04:77:59:d3:0d:1a:cf:41:a0:6f:e6:ad:0b:23:
         db:b6:96:07:80:4d:f1:3a:bc:1a:fa:0e:62:3c:bc:43:3a:ad:
         6a:d1:17:fc:de:f7:76:ec:1b:19:15:f4:d2:f8:09:e6:0f:58:
         04:a2:72:0d:35:78:e4:8e:08:62:98:39:33:03:d1:4d:b0:9a:
         fe:cc:a5:57:e3:d5:b9:a0:1b:1d:6c:21:58:9c:f5:2d:f8:38:
         f3:4d:df:61:ef:7b:5d:2e:1b:9b:bc:c6:dc:c8:a9:0e:47:b0:
         3d:63:e1:1b:01:bd:92:97:9a:ab:59:08:15:5a:a1:ea:63:66:
         f2:22:e0:d6:fb:90:03:5d:b2:38:5e:54:5f:7f:6f:b4:20:97:
         58:51:25:99:f3:61:eb:be:cf:1c:0c:c7:89:93:96:42:ce:3c:
         ab:df:12:b0:91:f0:ef:77:eb:d6:34:1f:9e:e3:c9:fa:d3:74:
         0d:0a:e1:8d:cb:38:c6:d5:3f:c7:ac:e4:c6:55:3d:fd:10:0e:
         b6:a2:ca:70:00:96:9e:1e:ba:14:dd:00:76:e0:2c:e7:16:ef:
         3f:c1:8e:0a:6d:6c:6a:c1:1a:b8:d8:c7:24:6f:d3:d5:94:4d:
         9d:2a:db:8c:a0:e2:48:63:95:71:e8:21:83:48:29:a2:16:9c:
         b0:a9:cf:a8:d4:cf:83:31:c8:93:bb:3a:7f:00:70:10:24:4d:
         83:10:20:b7:9d:b8:38:3d:bf:07:65:37:7c:b1:92:a9:8c:23:
         d4:72:05:a1:4e:20:1f:2c:70:42:23:b9:66:a3:3b:05:84:79:
         cd:29:31:9c:42:8b:ff:cd:03:16:59:cc:93:ff:51:5d:60:94:
         ff:bc:13:27:24:27:e0:a6:06:a8:21:22:05:c8:aa:5c:a6:1c:
         34:ba:ea:c6:6e:97:1c:3f:dc:24:05:14:f7:f4:52:6b:b2:49:
         46:84:ea:94:fe:19:cd:db:f4:58:bd:59:93:21:b9:e2:51:ee:
         cf:79:f3:23:7b:36:05:ab:6b:23:8a:cf:ec:0c:56:0b:ae:6a:
         e1:c2:73:3d:bb:4a:7a:ba:88:56:55:94:17:18:ce:37:cd:b1:
         c5:5a:62:48:d8:9b:d3:2a
-----BEGIN CERTIFICATE-----
MIIFOjCCAyKgAwIBAgIBATANBgkqhkiG9w0BAQsFADBiMQswCQYDVQQGEwJVUzEP
MA0GA1UECgwGTm9kZG9zMSUwIwYDVQQLDBxOb2Rkb3MgQ2VydGlmaWNhdGUgQXV0
aG9yaXR5MRswGQYDVQQDDBJOb2Rkb3MgU29mdHdhcmUgQ0EwHhcNMTcwMTI3MTI0
NzQyWhcNMjIwMTI3MTI0NzQyWjBpMQswCQYDVQQGEwJVUzEPMA0GA1UECgwGTm9k
ZG9zMSUwIwYDVQQLDBxOb2Rkb3MgQ2VydGlmaWNhdGUgQXV0aG9yaXR5MSIwIAYD
VQQDDBlOb2Rkb3MgQ29uZmlnIENlcnRpZmljYXRlMIIBIjANBgkqhkiG9w0BAQEF
AAOCAQ8AMIIBCgKCAQEA6NeBNJpDY/YBEtgrdU/htjpK+SBsgx24yJwP/bQ+R1Ey
Gb/r8/0mejr8A6F+FHk82RAzdtorGn0rDJ2PZ3EcHoErXArgmYDHTWArKASCbMBL
LrhUsBr7ynWF5HZltAs2dUhdTfLeQ6IkTfFkLsQg6jKfXXL14v0y+CUbT6ztECJl
fS6XpZR6r75e6/AN1Xc7R4yjgJHvy41vzdNwGmtr5wgZwtdmapsn/ngZ71E0SzdU
KdNw7gaWpqpt80sUKQ5uNSa695DJc56hK1qCGGyh2VTONevUl34sXInO9hRyyOwG
N5N/7LY3WzifYWuUxhUDRm5owj/J6S5tXZfyl19VFwIDAQABo4HzMIHwMA4GA1Ud
DwEB/wQEAwIHgDAJBgNVHRMEAjAAMBYGA1UdJQEB/wQMMAoGCCsGAQUFBwMDMB0G
A1UdDgQWBBRt9spR+usTCjXl/f1v+ZVI+//aCjAfBgNVHSMEGDAWgBTu39QAPTXe
00Q5zz2JJG8GbQ3rCjBCBggrBgEFBQcBAQQ2MDQwMgYIKwYBBQUHMAKGJmh0dHA6
Ly9jYS5ub2Rkb3MuY2EvY2Evc29mdHdhcmUtY2EuY2VyMDcGA1UdHwQwMC4wLKAq
oCiGJmh0dHA6Ly9jYS5ub2Rkb3MuY2EvY2Evc29mdHdhcmUtY2EuY3JsMA0GCSqG
SIb3DQEBCwUAA4ICAQAv3VTO07FhNrF8aTUrMX1Omp+P4f/vKC3FDrMhqUwhp1iK
XmUeHprG4/gQLX/U1PXNG6VO/W9ffuClz04sD7gh3gzG7TTwXQnWj2/mPEZd5rqq
CjELUQxiAaqd0W5gBHdZ0w0az0Ggb+atCyPbtpYHgE3xOrwa+g5iPLxDOq1q0Rf8
3vd27BsZFfTS+AnmD1gEonINNXjkjghimDkzA9FNsJr+zKVX49W5oBsdbCFYnPUt
+DjzTd9h73tdLhubvMbcyKkOR7A9Y+EbAb2Sl5qrWQgVWqHqY2byIuDW+5ADXbI4
XlRff2+0IJdYUSWZ82Hrvs8cDMeJk5ZCzjyr3xKwkfDvd+vWNB+e48n603QNCuGN
yzjG1T/HrOTGVT39EA62ospwAJaeHroU3QB24CznFu8/wY4KbWxqwRq42Mckb9PV
lE2dKtuMoOJIY5Vx6CGDSCmiFpywqc+o1M+DMciTuzp/AHAQJE2DECC3nbg4Pb8H
ZTd8sZKpjCPUcgWhTiAfLHBCI7lmozsFhHnNKTGcQov/zQMWWcyT/1FdYJT/vBMn
JCfgpgaoISIFyKpcphw0uurGbpccP9wkBRT39FJrsklGhOqU/hnN2/RYvVmTIbni
Ue7PefMjezYFq2sjis/sDFYLrmrhwnM9u0p6uohWVZQXGM43zbHFWmJI2JvTKg==
-----END CERTIFICATE-----
